; Function Attrs: mustprogress noreturn nounwind uwtable
define hidden void @_ZN12JVMCIRuntime8vm_errorEP10JavaThreadlll(ptr noundef %0, i64 noundef %1, i64 noundef %2, i64 noundef %3) local_unnamed_addr #4 align 2 {
  %5 = getelementptr inbounds i8, ptr %0, i64 1092
  store volatile i32 6, ptr %5, align 4
  %.not = icmp eq i64 %2, 0
  br i1 %.not, label %12, label %6

6:                                                ; preds = %4
  %7 = inttoptr i64 %2 to ptr
  %8 = tail call i64 @strlen(ptr noundef nonnull dereferenceable(1) %7) #16
  %9 = shl i64 %8, 1
  %10 = tail call noundef ptr @_Z23resource_allocate_bytesmN17AllocFailStrategy13AllocFailEnumE(i64 noundef %9, i32 noundef 0) #15
  %11 = tail call i32 (ptr, i64, ptr, ...) @jio_snprintf(ptr noundef %10, i64 noundef %9, ptr noundef nonnull %7, i64 noundef %3) #15
  br label %12

12:                                               ; preds = %6, %4
  %.0 = phi ptr [ %10, %6 ], [ null, %4 ]
  %13 = icmp eq i64 %1, 0
  %14 = inttoptr i64 %1 to ptr
  %15 = select i1 %13, ptr @.str.11, ptr %14
  tail call void (ptr, i32, ptr, ptr, ...) @_Z15report_vm_errorPKciS0_S0_z(ptr noundef nonnull @.str, i32 noundef 624, ptr noundef %15, ptr noundef nonnull @.str.12, ptr noundef %.0) #17
  unreachable
}